target datalayout = "e-m:e-p270:32:32-p271:32:32-p272:64:64-i64:64-i128:128-f80:128-n8:16:32:64-S128"
target triple = "x86_64-pc-linux-gnu"

@hf_s7comm_data_returncode = internal global i32 0, align 4
@hf_s7comm_data_transport_size = internal global i32 0, align 4
@hf_s7comm_data_length = internal global i32 0, align 4
@hf_s7comm_data_item = internal global i32 0, align 4
@hf_s7comm_readresponse_data = internal global i32 0, align 4
@hf_s7comm_data_fillbyte = internal global i32 0, align 4
@ett_s7comm_data_item = internal global i32 0, align 4
@.str.2170 = private unnamed_addr constant [12 x i8] c" [%d]: (%s)\00", align 1
@.str.2171 = private unnamed_addr constant [21 x i8] c"Unknown code: 0x%02x\00", align 1

; Function Attrs: null_pointer_is_valid sspstrong uwtable
define internal i32 @s7comm_decode_response_read_data(ptr noundef %0, ptr noundef %1, i8 noundef zeroext %2, i32 noundef %3) #0 {
  %5 = alloca ptr, align 8
  %6 = alloca ptr, align 8
  %7 = alloca i8, align 1
  %8 = alloca i32, align 4
  %9 = alloca i8, align 1
  %10 = alloca i8, align 1
  %11 = alloca i16, align 2
  %12 = alloca i16, align 2
  %13 = alloca i16, align 2
  %14 = alloca i8, align 1
  %15 = alloca ptr, align 8
  %16 = alloca ptr, align 8
  store ptr %0, ptr %5, align 8
  store ptr %1, ptr %6, align 8
  store i8 %2, ptr %7, align 1
  store i32 %3, ptr %8, align 4
  call void @llvm.lifetime.start.p0(i64 1, ptr %9) #8
  store i8 0, ptr %9, align 1
  call void @llvm.lifetime.start.p0(i64 1, ptr %10) #8
  store i8 0, ptr %10, align 1
  call void @llvm.lifetime.start.p0(i64 2, ptr %11) #8
  store i16 0, ptr %11, align 2
  call void @llvm.lifetime.start.p0(i64 2, ptr %12) #8
  store i16 0, ptr %12, align 2
  call void @llvm.lifetime.start.p0(i64 2, ptr %13) #8
  store i16 4, ptr %13, align 2
  call void @llvm.lifetime.start.p0(i64 1, ptr %14) #8
  store i8 0, ptr %14, align 1
  call void @llvm.lifetime.start.p0(i64 8, ptr %15) #8
  store ptr null, ptr %15, align 8
  call void @llvm.lifetime.start.p0(i64 8, ptr %16) #8
  store ptr null, ptr %16, align 8
  %17 = load ptr, ptr %5, align 8
  %18 = load i32, ptr %8, align 4
  %19 = add i32 %18, 1
  %20 = call zeroext i8 @tvb_get_uint8(ptr noundef %17, i32 noundef %19)
  store i8 %20, ptr %10, align 1
  %21 = load i8, ptr %10, align 1
  %22 = zext i8 %21 to i32
  %23 = icmp eq i32 %22, 17
  br i1 %23, label %28, label %24

24:                                               ; preds = %4
  %25 = load i8, ptr %10, align 1
  %26 = zext i8 %25 to i32
  %27 = icmp eq i32 %26, 18
  br i1 %27, label %28, label %60

28:                                               ; preds = %24, %4
  %29 = load ptr, ptr %6, align 8
  %30 = load i32, ptr @hf_s7comm_data_returncode, align 4
  %31 = load ptr, ptr %5, align 8
  %32 = load i32, ptr %8, align 4
  %33 = call ptr @proto_tree_add_item(ptr noundef %29, i32 noundef %30, ptr noundef %31, i32 noundef %32, i32 noundef 1, i32 noundef 0)
  %34 = load ptr, ptr %6, align 8
  %35 = load i32, ptr @hf_s7comm_data_transport_size, align 4
  %36 = load ptr, ptr %5, align 8
  %37 = load i32, ptr %8, align 4
  %38 = add i32 %37, 1
  %39 = load i8, ptr %10, align 1
  %40 = zext i8 %39 to i32
  %41 = call ptr @proto_tree_add_uint(ptr noundef %34, i32 noundef %35, ptr noundef %36, i32 noundef %38, i32 noundef 1, i32 noundef %40)
  %42 = load i32, ptr %8, align 4
  %43 = add i32 %42, 2
  store i32 %43, ptr %8, align 4
  store i8 0, ptr %14, align 1
  br label %44

44:                                               ; preds = %56, %28
  %45 = load i8, ptr %14, align 1
  %46 = zext i8 %45 to i32
  %47 = load i8, ptr %7, align 1
  %48 = zext i8 %47 to i32
  %49 = icmp slt i32 %46, %48
  br i1 %49, label %50, label %59

50:                                               ; preds = %44
  %51 = load ptr, ptr %5, align 8
  %52 = load i32, ptr %8, align 4
  %53 = load ptr, ptr %6, align 8
  %54 = load i8, ptr %14, align 1
  %55 = call i32 @s7comm_decode_param_item(ptr noundef %51, i32 noundef %52, ptr noundef %53, i8 noundef zeroext %54)
  store i32 %55, ptr %8, align 4
  br label %56

56:                                               ; preds = %50
  %57 = load i8, ptr %14, align 1
  %58 = add i8 %57, 1
  store i8 %58, ptr %14, align 1
  br label %44, !llvm.loop !12

59:                                               ; preds = %44
  br label %228

60:                                               ; preds = %24
  store i8 0, ptr %14, align 1
  br label %61

61:                                               ; preds = %224, %60
  %62 = load i8, ptr %14, align 1
  %63 = zext i8 %62 to i32
  %64 = load i8, ptr %7, align 1
  %65 = zext i8 %64 to i32
  %66 = icmp slt i32 %63, %65
  br i1 %66, label %67, label %227

67:                                               ; preds = %61
  %68 = load ptr, ptr %5, align 8
  %69 = load i32, ptr %8, align 4
  %70 = call zeroext i8 @tvb_get_uint8(ptr noundef %68, i32 noundef %69)
  store i8 %70, ptr %9, align 1
  %71 = load i8, ptr %9, align 1
  %72 = zext i8 %71 to i32
  %73 = icmp eq i32 %72, 0
  br i1 %73, label %82, label %74

74:                                               ; preds = %67
  %75 = load i8, ptr %9, align 1
  %76 = zext i8 %75 to i32
  %77 = icmp eq i32 %76, 255
  br i1 %77, label %82, label %78

78:                                               ; preds = %74
  %79 = load i8, ptr %9, align 1
  %80 = zext i8 %79 to i32
  %81 = icmp eq i32 %80, 10
  br i1 %81, label %82, label %142

82:                                               ; preds = %78, %74, %67
  %83 = load ptr, ptr %5, align 8
  %84 = load i32, ptr %8, align 4
  %85 = add i32 %84, 1
  %86 = call zeroext i8 @tvb_get_uint8(ptr noundef %83, i32 noundef %85)
  store i8 %86, ptr %10, align 1
  %87 = load ptr, ptr %5, align 8
  %88 = load i32, ptr %8, align 4
  %89 = add i32 %88, 2
  %90 = call zeroext i16 @tvb_get_ntohs(ptr noundef %87, i32 noundef %89)
  store i16 %90, ptr %11, align 2
  %91 = load i8, ptr %10, align 1
  %92 = zext i8 %91 to i32
  %93 = icmp eq i32 %92, 3
  br i1 %93, label %102, label %94

94:                                               ; preds = %82
  %95 = load i8, ptr %10, align 1
  %96 = zext i8 %95 to i32
  %97 = icmp eq i32 %96, 4
  br i1 %97, label %102, label %98

98:                                               ; preds = %94
  %99 = load i8, ptr %10, align 1
  %100 = zext i8 %99 to i32
  %101 = icmp eq i32 %100, 5
  br i1 %101, label %102, label %122

102:                                              ; preds = %98, %94, %82
  %103 = load i16, ptr %11, align 2
  %104 = zext i16 %103 to i32
  %105 = srem i32 %104, 8
  %106 = icmp ne i32 %105, 0
  br i1 %106, label %107, label %116

107:                                              ; preds = %102
  %108 = load i16, ptr %11, align 2
  %109 = zext i16 %108 to i32
  %110 = sdiv i32 %109, 8
  %111 = trunc i32 %110 to i16
  store i16 %111, ptr %11, align 2
  %112 = load i16, ptr %11, align 2
  %113 = zext i16 %112 to i32
  %114 = add i32 %113, 1
  %115 = trunc i32 %114 to i16
  store i16 %115, ptr %11, align 2
  br label %121

116:                                              ; preds = %102
  %117 = load i16, ptr %11, align 2
  %118 = zext i16 %117 to i32
  %119 = sdiv i32 %118, 8
  %120 = trunc i32 %119 to i16
  store i16 %120, ptr %11, align 2
  br label %121

121:                                              ; preds = %116, %107
  br label %122

122:                                              ; preds = %121, %98
  %123 = load i16, ptr %11, align 2
  %124 = zext i16 %123 to i32
  %125 = srem i32 %124, 2
  %126 = icmp ne i32 %125, 0
  br i1 %126, label %127, label %139

127:                                              ; preds = %122
  %128 = load i8, ptr %14, align 1
  %129 = zext i8 %128 to i32
  %130 = load i8, ptr %7, align 1
  %131 = zext i8 %130 to i32
  %132 = sub i32 %131, 1
  %133 = icmp slt i32 %129, %132
  br i1 %133, label %134, label %139

134:                                              ; preds = %127
  %135 = load i16, ptr %11, align 2
  %136 = zext i16 %135 to i32
  %137 = add i32 %136, 1
  %138 = trunc i32 %137 to i16
  store i16 %138, ptr %12, align 2
  br label %141

139:                                              ; preds = %127, %122
  %140 = load i16, ptr %11, align 2
  store i16 %140, ptr %12, align 2
  br label %141

141:                                              ; preds = %139, %134
  br label %142

142:                                              ; preds = %141, %78
  %143 = load ptr, ptr %6, align 8
  %144 = load i32, ptr @hf_s7comm_data_item, align 4
  %145 = load ptr, ptr %5, align 8
  %146 = load i32, ptr %8, align 4
  %147 = load i16, ptr %11, align 2
  %148 = zext i16 %147 to i32
  %149 = load i16, ptr %13, align 2
  %150 = zext i16 %149 to i32
  %151 = add i32 %148, %150
  %152 = call ptr @proto_tree_add_item(ptr noundef %143, i32 noundef %144, ptr noundef %145, i32 noundef %146, i32 noundef %151, i32 noundef 0)
  store ptr %152, ptr %15, align 8
  %153 = load ptr, ptr %15, align 8
  %154 = load i32, ptr @ett_s7comm_data_item, align 4
  %155 = call ptr @proto_item_add_subtree(ptr noundef %153, i32 noundef %154)
  store ptr %155, ptr %16, align 8
  %156 = load ptr, ptr %15, align 8
  %157 = load i8, ptr %14, align 1
  %158 = zext i8 %157 to i32
  %159 = add i32 %158, 1
  %160 = load i8, ptr %9, align 1
  %161 = zext i8 %160 to i32
  %162 = call ptr @val_to_str(i32 noundef %161, ptr noundef @s7comm_item_return_valuenames, ptr noundef @.str.2171)
  call void (ptr, ptr, ...) @proto_item_append_text(ptr noundef %156, ptr noundef @.str.2170, i32 noundef %159, ptr noundef %162)
  %163 = load ptr, ptr %16, align 8
  %164 = load i32, ptr @hf_s7comm_data_returncode, align 4
  %165 = load ptr, ptr %5, align 8
  %166 = load i32, ptr %8, align 4
  %167 = load i8, ptr %9, align 1
  %168 = zext i8 %167 to i32
  %169 = call ptr @proto_tree_add_uint(ptr noundef %163, i32 noundef %164, ptr noundef %165, i32 noundef %166, i32 noundef 1, i32 noundef %168)
  %170 = load ptr, ptr %16, align 8
  %171 = load i32, ptr @hf_s7comm_data_transport_size, align 4
  %172 = load ptr, ptr %5, align 8
  %173 = load i32, ptr %8, align 4
  %174 = add i32 %173, 1
  %175 = load i8, ptr %10, align 1
  %176 = zext i8 %175 to i32
  %177 = call ptr @proto_tree_add_uint(ptr noundef %170, i32 noundef %171, ptr noundef %172, i32 noundef %174, i32 noundef 1, i32 noundef %176)
  %178 = load ptr, ptr %16, align 8
  %179 = load i32, ptr @hf_s7comm_data_length, align 4
  %180 = load ptr, ptr %5, align 8
  %181 = load i32, ptr %8, align 4
  %182 = add i32 %181, 2
  %183 = load i16, ptr %11, align 2
  %184 = zext i16 %183 to i32
  %185 = call ptr @proto_tree_add_uint(ptr noundef %178, i32 noundef %179, ptr noundef %180, i32 noundef %182, i32 noundef 2, i32 noundef %184)
  %186 = load i16, ptr %13, align 2
  %187 = zext i16 %186 to i32
  %188 = load i32, ptr %8, align 4
  %189 = add i32 %188, %187
  store i32 %189, ptr %8, align 4
  %190 = load i8, ptr %9, align 1
  %191 = zext i8 %190 to i32
  %192 = icmp eq i32 %191, 255
  br i1 %192, label %197, label %193

193:                                              ; preds = %142
  %194 = load i8, ptr %9, align 1
  %195 = zext i8 %194 to i32
  %196 = icmp eq i32 %195, 0
  br i1 %196, label %197, label %223

197:                                              ; preds = %193, %142
  %198 = load ptr, ptr %16, align 8
  %199 = load i32, ptr @hf_s7comm_readresponse_data, align 4
  %200 = load ptr, ptr %5, align 8
  %201 = load i32, ptr %8, align 4
  %202 = load i16, ptr %11, align 2
  %203 = zext i16 %202 to i32
  %204 = call ptr @proto_tree_add_item(ptr noundef %198, i32 noundef %199, ptr noundef %200, i32 noundef %201, i32 noundef %203, i32 noundef 0)
  %205 = load i16, ptr %11, align 2
  %206 = zext i16 %205 to i32
  %207 = load i32, ptr %8, align 4
  %208 = add i32 %207, %206
  store i32 %208, ptr %8, align 4
  %209 = load i16, ptr %11, align 2
  %210 = zext i16 %209 to i32
  %211 = load i16, ptr %12, align 2
  %212 = zext i16 %211 to i32
  %213 = icmp ne i32 %210, %212
  br i1 %213, label %214, label %222

214:                                              ; preds = %197
  %215 = load ptr, ptr %16, align 8
  %216 = load i32, ptr @hf_s7comm_data_fillbyte, align 4
  %217 = load ptr, ptr %5, align 8
  %218 = load i32, ptr %8, align 4
  %219 = call ptr @proto_tree_add_item(ptr noundef %215, i32 noundef %216, ptr noundef %217, i32 noundef %218, i32 noundef 1, i32 noundef 0)
  %220 = load i32, ptr %8, align 4
  %221 = add i32 %220, 1
  store i32 %221, ptr %8, align 4
  br label %222

222:                                              ; preds = %214, %197
  br label %223

223:                                              ; preds = %222, %193
  br label %224

224:                                              ; preds = %223
  %225 = load i8, ptr %14, align 1
  %226 = add i8 %225, 1
  store i8 %226, ptr %14, align 1
  br label %61, !llvm.loop !13

227:                                              ; preds = %61
  br label %228

228:                                              ; preds = %227, %59
  %229 = load i32, ptr %8, align 4
  call void @llvm.lifetime.end.p0(i64 8, ptr %16) #8
  call void @llvm.lifetime.end.p0(i64 8, ptr %15) #8
  call void @llvm.lifetime.end.p0(i64 1, ptr %14) #8
  call void @llvm.lifetime.end.p0(i64 2, ptr %13) #8
  call void @llvm.lifetime.end.p0(i64 2, ptr %12) #8
  call void @llvm.lifetime.end.p0(i64 2, ptr %11) #8
  call void @llvm.lifetime.end.p0(i64 1, ptr %10) #8
  call void @llvm.lifetime.end.p0(i64 1, ptr %9) #8
  ret i32 %229
}