; Function Attrs: null_pointer_is_valid sspstrong uwtable
define internal fastcc i32 @s7comm_decode_response_read_data(ptr noundef %0, ptr noundef %1, i8 noundef zeroext %2, i32 noundef %3) unnamed_addr #0 {
  %5 = add i32 %3, 1
  %6 = tail call zeroext i8 @tvb_get_uint8(ptr noundef %0, i32 noundef %5)
  %7 = add i8 %6, -17
  %or.cond = icmp ult i8 %7, 2
  br i1 %or.cond, label %10, label %.preheader

.preheader:                                       ; preds = %4
  %.not122 = icmp eq i8 %2, 0
  br i1 %.not122, label %.loopexit, label %.lr.ph

.lr.ph:                                           ; preds = %.preheader
  %8 = zext i8 %2 to i32
  %9 = add nsw i32 %8, -1
  br label %19

10:                                               ; preds = %4
  %11 = zext nneg i8 %6 to i32
  %12 = load i32, ptr @hf_s7comm_data_returncode, align 4
  %13 = tail call ptr @proto_tree_add_item(ptr noundef %1, i32 noundef %12, ptr noundef %0, i32 noundef %3, i32 noundef 1, i32 noundef 0)
  %14 = load i32, ptr @hf_s7comm_data_transport_size, align 4
  %15 = tail call ptr @proto_tree_add_uint(ptr noundef %1, i32 noundef %14, ptr noundef %0, i32 noundef %5, i32 noundef 1, i32 noundef %11)
  %16 = add i32 %3, 2
  %.not123 = icmp eq i8 %2, 0
  br i1 %.not123, label %.loopexit, label %.lr.ph120

.lr.ph120:                                        ; preds = %10, %.lr.ph120
  %.0119 = phi i8 [ %18, %.lr.ph120 ], [ 0, %10 ]
  %.097118 = phi i32 [ %17, %.lr.ph120 ], [ %16, %10 ]
  %17 = tail call fastcc i32 @s7comm_decode_param_item(ptr noundef %0, i32 noundef %.097118, ptr noundef %1, i8 noundef zeroext %.0119)
  %18 = add nuw i8 %.0119, 1
  %exitcond126.not = icmp eq i8 %18, %2
  br i1 %exitcond126.not, label %.loopexit, label %.lr.ph120, !llvm.loop !15

19:                                               ; preds = %.lr.ph, %61
  %indvars.iv = phi i32 [ 0, %.lr.ph ], [ %42, %61 ]
  %.2116 = phi i32 [ %3, %.lr.ph ], [ %.3, %61 ]
  %.099115 = phi i16 [ 0, %.lr.ph ], [ %.1100, %61 ]
  %.0101114 = phi i16 [ 0, %.lr.ph ], [ %.1102, %61 ]
  %.0104113 = phi i8 [ %6, %.lr.ph ], [ %.1105, %61 ]
  %20 = tail call zeroext i8 @tvb_get_uint8(ptr noundef %0, i32 noundef %.2116)
  %21 = zext i8 %20 to i32
  switch i8 %20, label %._crit_edge [
    i8 -1, label %22
    i8 10, label %22
    i8 0, label %22
  ]

._crit_edge:                                      ; preds = %19
  %.pre = add i32 %.2116, 1
  %.pre127 = add i32 %.2116, 2
  br label %35

22:                                               ; preds = %19, %19, %19
  %23 = add i32 %.2116, 1
  %24 = tail call zeroext i8 @tvb_get_uint8(ptr noundef %0, i32 noundef %23)
  %25 = add i32 %.2116, 2
  %26 = tail call zeroext i16 @tvb_get_ntohs(ptr noundef %0, i32 noundef %25)
  %27 = add i8 %24, -3
  %or.cond14 = icmp ult i8 %27, 3
  br i1 %or.cond14, label %28, label %31

28:                                               ; preds = %22
  %29 = and i16 %26, 7
  %.not = icmp ne i16 %29, 0
  %30 = lshr i16 %26, 3
  %narrow = zext i1 %.not to i16
  %spec.select130 = add nuw nsw i16 %30, %narrow
  br label %31

31:                                               ; preds = %28, %22
  %.2103 = phi i16 [ %26, %22 ], [ %spec.select130, %28 ]
  %32 = and i16 %.2103, 1
  %.not108 = icmp ne i16 %32, 0
  %33 = icmp sgt i32 %9, %indvars.iv
  %or.cond111 = select i1 %.not108, i1 %33, i1 false
  %34 = zext i1 %or.cond111 to i16
  %spec.select = add i16 %.2103, %34
  br label %35

35:                                               ; preds = %._crit_edge, %31
  %.pre-phi128 = phi i32 [ %.pre127, %._crit_edge ], [ %25, %31 ]
  %.pre-phi = phi i32 [ %.pre, %._crit_edge ], [ %23, %31 ]
  %.1105 = phi i8 [ %.0104113, %._crit_edge ], [ %24, %31 ]
  %.1102 = phi i16 [ %.0101114, %._crit_edge ], [ %.2103, %31 ]
  %.1100 = phi i16 [ %.099115, %._crit_edge ], [ %spec.select, %31 ]
  %36 = load i32, ptr @hf_s7comm_data_item, align 4
  %37 = zext i16 %.1102 to i32
  %38 = add nuw nsw i32 %37, 4
  %39 = tail call ptr @proto_tree_add_item(ptr noundef %1, i32 noundef %36, ptr noundef %0, i32 noundef %.2116, i32 noundef %38, i32 noundef 0)
  %40 = load i32, ptr @ett_s7comm_data_item, align 4
  %41 = tail call ptr @proto_item_add_subtree(ptr noundef %39, i32 noundef %40)
  %42 = add nuw nsw i32 %indvars.iv, 1
  %43 = tail call ptr @val_to_str(i32 noundef %21, ptr noundef nonnull @s7comm_item_return_valuenames, ptr noundef nonnull @.str.2171)
  tail call void (ptr, ptr, ...) @proto_item_append_text(ptr noundef %39, ptr noundef nonnull @.str.2170, i32 noundef %42, ptr noundef %43)
  %44 = load i32, ptr @hf_s7comm_data_returncode, align 4
  %45 = tail call ptr @proto_tree_add_uint(ptr noundef %41, i32 noundef %44, ptr noundef %0, i32 noundef %.2116, i32 noundef 1, i32 noundef %21)
  %46 = load i32, ptr @hf_s7comm_data_transport_size, align 4
  %47 = zext i8 %.1105 to i32
  %48 = tail call ptr @proto_tree_add_uint(ptr noundef %41, i32 noundef %46, ptr noundef %0, i32 noundef %.pre-phi, i32 noundef 1, i32 noundef %47)
  %49 = load i32, ptr @hf_s7comm_data_length, align 4
  %50 = tail call ptr @proto_tree_add_uint(ptr noundef %41, i32 noundef %49, ptr noundef %0, i32 noundef %.pre-phi128, i32 noundef 2, i32 noundef %37)
  %51 = add i32 %.2116, 4
  %52 = add i8 %20, 1
  %or.cond17 = icmp ult i8 %52, 2
  br i1 %or.cond17, label %53, label %61

53:                                               ; preds = %35
  %54 = load i32, ptr @hf_s7comm_readresponse_data, align 4
  %55 = tail call ptr @proto_tree_add_item(ptr noundef %41, i32 noundef %54, ptr noundef %0, i32 noundef %51, i32 noundef %37, i32 noundef 0)
  %56 = add i32 %51, %37
  %.not109 = icmp eq i16 %.1102, %.1100
  br i1 %.not109, label %61, label %57

57:                                               ; preds = %53
  %58 = load i32, ptr @hf_s7comm_data_fillbyte, align 4
  %59 = tail call ptr @proto_tree_add_item(ptr noundef %41, i32 noundef %58, ptr noundef %0, i32 noundef %56, i32 noundef 1, i32 noundef 0)
  %60 = add i32 %56, 1
  br label %61

61:                                               ; preds = %35, %57, %53
  %.3 = phi i32 [ %60, %57 ], [ %56, %53 ], [ %51, %35 ]
  %exitcond.not = icmp eq i32 %42, %8
  br i1 %exitcond.not, label %.loopexit, label %19, !llvm.loop !16

.loopexit:                                        ; preds = %61, %.lr.ph120, %.preheader, %10
  %.198 = phi i32 [ %16, %10 ], [ %3, %.preheader ], [ %17, %.lr.ph120 ], [ %.3, %61 ]
  ret i32 %.198
}